; Function Attrs: inlinehint mustprogress uwtable
define internal void @_ZZN5folly18threadlocal_detail14ElementWrapper3setIPNS_20SingletonThreadLocalINS_4test12_GLOBAL__N_114PerThreadStateENS_6detail10DefaultTagENS7_11DefaultMakeIS6_EEvE7WrapperEEEvT_ENUlPvNS_18TLPDestructionModeEE_8__invokeESF_SG_(ptr noundef %0, i32 %1) #29 align 2 personality ptr @__gxx_personality_v0 {
  %3 = icmp eq ptr %0, null
  br i1 %3, label %_ZZN5folly18threadlocal_detail14ElementWrapper3setIPNS_20SingletonThreadLocalINS_4test12_GLOBAL__N_114PerThreadStateENS_6detail10DefaultTagENS7_11DefaultMakeIS6_EEvE7WrapperEEEvT_ENKUlPvNS_18TLPDestructionModeEE_clESF_SG_.exit, label %4

4:                                                ; preds = %2
  %5 = getelementptr inbounds nuw i8, ptr %0, i64 56
  tail call void @_ZN5folly6detail25SingletonThreadLocalState8TrackingD2Ev(ptr noundef nonnull align 8 dereferenceable(112) %5) #18
  %6 = getelementptr inbounds nuw i8, ptr %0, i64 40
  %7 = load ptr, ptr %6, align 8, !tbaa !63
  %.not.i.i.i.i.i = icmp eq ptr %7, null
  br i1 %.not.i.i.i.i.i, label %_ZN5folly20SingletonThreadLocalINS_4test12_GLOBAL__N_114PerThreadStateENS_6detail10DefaultTagENS4_11DefaultMakeIS3_EEvE7WrapperD2Ev.exit.i, label %8

8:                                                ; preds = %4
  %9 = getelementptr inbounds nuw i8, ptr %0, i64 24
  %10 = invoke noundef zeroext i1 %7(ptr noundef nonnull align 8 dereferenceable(32) %9, ptr noundef nonnull align 8 dereferenceable(32) %9, i32 noundef 3)
          to label %_ZN5folly20SingletonThreadLocalINS_4test12_GLOBAL__N_114PerThreadStateENS_6detail10DefaultTagENS4_11DefaultMakeIS3_EEvE7WrapperD2Ev.exit.i unwind label %11

11:                                               ; preds = %8
  %12 = landingpad { ptr, i32 }
          catch ptr null
  %13 = extractvalue { ptr, i32 } %12, 0
  tail call void @__clang_call_terminate(ptr %13) #36
  unreachable

_ZN5folly20SingletonThreadLocalINS_4test12_GLOBAL__N_114PerThreadStateENS_6detail10DefaultTagENS4_11DefaultMakeIS3_EEvE7WrapperD2Ev.exit.i: ; preds = %8, %4
  tail call void @_ZdlPvm(ptr noundef nonnull %0, i64 noundef 168) #37
  br label %_ZZN5folly18threadlocal_detail14ElementWrapper3setIPNS_20SingletonThreadLocalINS_4test12_GLOBAL__N_114PerThreadStateENS_6detail10DefaultTagENS7_11DefaultMakeIS6_EEvE7WrapperEEEvT_ENKUlPvNS_18TLPDestructionModeEE_clESF_SG_.exit

_ZZN5folly18threadlocal_detail14ElementWrapper3setIPNS_20SingletonThreadLocalINS_4test12_GLOBAL__N_114PerThreadStateENS_6detail10DefaultTagENS7_11DefaultMakeIS6_EEvE7WrapperEEEvT_ENKUlPvNS_18TLPDestructionModeEE_clESF_SG_.exit: ; preds = %2, %_ZN5folly20SingletonThreadLocalINS_4test12_GLOBAL__N_114PerThreadStateENS_6detail10DefaultTagENS4_11DefaultMakeIS3_EEvE7WrapperD2Ev.exit.i
  ret void
}